target datalayout = "e-m:e-p270:32:32-p271:32:32-p272:64:64-i64:64-i128:128-f80:128-n8:16:32:64-S128"
target triple = "x86_64-pc-linux-gnu"

; Function Attrs: mustprogress nounwind uwtable
define noundef i32 @_ZN5folly6detail26neon_eor3_crc32c_v8s2x4_s3EPKhmj(ptr noundef %0, i64 noundef %1, i32 noundef %2) #0 {
  %4 = alloca ptr, align 8
  %5 = alloca i64, align 8
  %6 = alloca i32, align 4
  store ptr %0, ptr %4, align 8, !tbaa !7
  store i64 %1, ptr %5, align 8, !tbaa !12
  store i32 %2, ptr %6, align 4, !tbaa !14
  call void @abort() #2
  unreachable
}

; Function Attrs: noreturn nounwind
declare void @abort() #1

; Function Attrs: mustprogress nounwind uwtable
define noundef zeroext i1 @_ZN5folly6detail30has_neon_eor3_crc32c_v8s2x4_s3Ev() #0 {
  ret i1 false
}


!llvm.module.flags = !{!0, !1, !2, !3, !4, !5, !6}

!0 = !{i32 7, !"Dwarf Version", i32 5}
!1 = !{i32 2, !"Debug Info Version", i32 3}
!2 = !{i32 1, !"wchar_size", i32 4}
!3 = !{i32 7, !"openmp", i32 51}
!4 = !{i32 8, !"PIC Level", i32 2}
!5 = !{i32 7, !"uwtable", i32 2}
!6 = !{i32 7, !"debug-info-assignment-tracking", i1 true}
!7 = !{!8, !8, i64 0}
!8 = !{!"p1 omnipotent char", !9, i64 0}
!9 = !{!"any pointer", !10, i64 0}
!10 = !{!"omnipotent char", !11, i64 0}
!11 = !{!"Simple C++ TBAA"}
!12 = !{!13, !13, i64 0}
!13 = !{!"long", !10, i64 0}
!14 = !{!15, !15, i64 0}
!15 = !{!"int", !10, i64 0}
