; ModuleID = 'bench/folly/original/neon_eor3_crc32c_v8s2x4_s3.ll'
source_filename = "bench/folly/original/neon_eor3_crc32c_v8s2x4_s3.ll"
target datalayout = "e-m:e-p270:32:32-p271:32:32-p272:64:64-i64:64-i128:128-f80:128-n8:16:32:64-S128"
target triple = "x86_64-pc-linux-gnu"

; Function Attrs: cold mustprogress nofree noreturn nounwind uwtable
define noundef i32 @_ZN5folly6detail26neon_eor3_crc32c_v8s2x4_s3EPKhmj(ptr noundef readnone captures(none) %0, i64 noundef %1, i32 noundef %2) local_unnamed_addr #0 {
  tail call void @abort() #3
  unreachable
}

; Function Attrs: cold nofree noreturn nounwind
declare void @abort() local_unnamed_addr #1

; Function Attrs: mustprogress nofree norecurse nosync nounwind willreturn memory(none) uwtable
define noundef zeroext i1 @_ZN5folly6detail30has_neon_eor3_crc32c_v8s2x4_s3Ev() local_unnamed_addr #2 {
  ret i1 false
}


!llvm.module.flags = !{!0, !1, !2, !3, !4, !5, !6}

!0 = !{i32 7, !"Dwarf Version", i32 5}
!1 = !{i32 2, !"Debug Info Version", i32 3}
!2 = !{i32 1, !"wchar_size", i32 4}
!3 = !{i32 7, !"openmp", i32 51}
!4 = !{i32 8, !"PIC Level", i32 2}
!5 = !{i32 7, !"uwtable", i32 2}
!6 = !{i32 7, !"debug-info-assignment-tracking", i1 true}
